target datalayout = "e-m:e-p270:32:32-p271:32:32-p272:64:64-i64:64-i128:128-f80:128-n8:16:32:64-S128"
target triple = "x86_64-pc-linux-gnu"

%struct.H5FL_reg_head_t = type { i8, i32, i32, ptr, i64, ptr }
%struct.H5O_loc_t = type { ptr, i64, i8 }
%struct.H5A_t = type { %struct.H5O_shared_t, %struct.H5O_loc_t, i8, %struct.H5G_name_t, ptr }
%struct.H5O_shared_t = type { i32, ptr, i32, %union.anon }
%union.anon = type { %struct.H5O_mesg_loc_t }
%struct.H5O_mesg_loc_t = type { i32, i64 }
%struct.H5G_name_t = type { ptr, ptr, i32 }
%struct.H5A_shared_t = type { i8, ptr, i32, ptr, i64, ptr, i64, ptr, i64, i32, i32 }

@H5_H5A_t_reg_free_list = global %struct.H5FL_reg_head_t { i8 0, i32 0, i32 0, ptr @.str, i64 104, ptr null }, align 8
@.str.3 = private unnamed_addr constant [100 x i8] c"generated/home/dtcxzyw/WorkSpace/Projects/compilers/llvm-opt-benchmark/bench/hdf5/hdf5/src/H5Aint.c\00", align 1
@H5E_ATTR_g = external global i64, align 8
@H5E_CANTRELEASE_g = external global i64, align 8
@__func__.H5A__close = private unnamed_addr constant [11 x i8] c"H5A__close\00", align 1
@.str.54 = private unnamed_addr constant [33 x i8] c"can't release object header info\00", align 1
@.str.55 = private unnamed_addr constant [29 x i8] c"can't release attribute info\00", align 1
@.str.56 = private unnamed_addr constant [31 x i8] c"can't release group hier. path\00", align 1

; Function Attrs: nounwind uwtable
define i32 @H5A__close(ptr noundef %0) #0 {
  %2 = alloca ptr, align 8
  %3 = alloca i32, align 4
  %4 = alloca i8, align 1
  store ptr %0, ptr %2, align 8
  store i32 0, ptr %3, align 4
  store i8 0, ptr %4, align 1
  %5 = load ptr, ptr %2, align 8
  %6 = getelementptr inbounds %struct.H5A_t, ptr %5, i32 0, i32 2
  %7 = load i8, ptr %6, align 8
  %8 = trunc i8 %7 to i1
  br i1 %8, label %9, label %29

9:                                                ; preds = %1
  %10 = load ptr, ptr %2, align 8
  %11 = getelementptr inbounds %struct.H5A_t, ptr %10, i32 0, i32 1
  %12 = call i32 @H5O_close(ptr noundef %11, ptr noundef null)
  %13 = icmp slt i32 %12, 0
  br i1 %13, label %14, label %29

14:                                               ; preds = %9
  br label %15

15:                                               ; preds = %14
  br label %16

16:                                               ; preds = %15
  br label %17

17:                                               ; preds = %16
  %18 = load i64, ptr @H5E_ATTR_g, align 8
  %19 = load i64, ptr @H5E_CANTRELEASE_g, align 8
  %20 = call i32 (ptr, ptr, i32, i64, i64, ptr, ...) @H5E_printf_stack(ptr noundef @.str.3, ptr noundef @__func__.H5A__close, i32 noundef 1277, i64 noundef %18, i64 noundef %19, ptr noundef @.str.54)
  br label %21

21:                                               ; preds = %17
  store i8 1, ptr %4, align 1
  %22 = load i8, ptr %4, align 1
  %23 = trunc i8 %22 to i1
  %24 = zext i1 %23 to i8
  store i8 %24, ptr %4, align 1
  br label %25

25:                                               ; preds = %21
  br label %26

26:                                               ; preds = %25
  store i32 -1, ptr %3, align 4
  br label %94

27:                                               ; No predecessors!
  br label %28

28:                                               ; preds = %27
  br label %29

29:                                               ; preds = %28, %9, %1
  %30 = load ptr, ptr %2, align 8
  %31 = getelementptr inbounds %struct.H5A_t, ptr %30, i32 0, i32 4
  %32 = load ptr, ptr %31, align 8
  %33 = getelementptr inbounds %struct.H5A_shared_t, ptr %32, i32 0, i32 10
  %34 = load i32, ptr %33, align 4
  %35 = icmp ule i32 %34, 1
  br i1 %35, label %36, label %62

36:                                               ; preds = %29
  %37 = load ptr, ptr %2, align 8
  %38 = getelementptr inbounds %struct.H5A_t, ptr %37, i32 0, i32 4
  %39 = load ptr, ptr %38, align 8
  %40 = icmp ne ptr %39, null
  br i1 %40, label %41, label %61

41:                                               ; preds = %36
  %42 = load ptr, ptr %2, align 8
  %43 = call i32 @H5A__shared_free(ptr noundef %42)
  %44 = icmp slt i32 %43, 0
  br i1 %44, label %45, label %60

45:                                               ; preds = %41
  br label %46

46:                                               ; preds = %45
  br label %47

47:                                               ; preds = %46
  br label %48

48:                                               ; preds = %47
  %49 = load i64, ptr @H5E_ATTR_g, align 8
  %50 = load i64, ptr @H5E_CANTRELEASE_g, align 8
  %51 = call i32 (ptr, ptr, i32, i64, i64, ptr, ...) @H5E_printf_stack(ptr noundef @.str.3, ptr noundef @__func__.H5A__close, i32 noundef 1284, i64 noundef %49, i64 noundef %50, ptr noundef @.str.55)
  br label %52

52:                                               ; preds = %48
  store i8 1, ptr %4, align 1
  %53 = load i8, ptr %4, align 1
  %54 = trunc i8 %53 to i1
  %55 = zext i1 %54 to i8
  store i8 %55, ptr %4, align 1
  br label %56

56:                                               ; preds = %52
  br label %57

57:                                               ; preds = %56
  store i32 -1, ptr %3, align 4
  br label %94

58:                                               ; No predecessors!
  br label %59

59:                                               ; preds = %58
  br label %60

60:                                               ; preds = %59, %41
  br label %61

61:                                               ; preds = %60, %36
  br label %69

62:                                               ; preds = %29
  %63 = load ptr, ptr %2, align 8
  %64 = getelementptr inbounds %struct.H5A_t, ptr %63, i32 0, i32 4
  %65 = load ptr, ptr %64, align 8
  %66 = getelementptr inbounds %struct.H5A_shared_t, ptr %65, i32 0, i32 10
  %67 = load i32, ptr %66, align 4
  %68 = add i32 %67, -1
  store i32 %68, ptr %66, align 4
  br label %69

69:                                               ; preds = %62, %61
  %70 = load ptr, ptr %2, align 8
  %71 = getelementptr inbounds %struct.H5A_t, ptr %70, i32 0, i32 3
  %72 = call i32 @H5G_name_free(ptr noundef %71)
  %73 = icmp slt i32 %72, 0
  br i1 %73, label %74, label %89

74:                                               ; preds = %69
  br label %75

75:                                               ; preds = %74
  br label %76

76:                                               ; preds = %75
  br label %77

77:                                               ; preds = %76
  %78 = load i64, ptr @H5E_ATTR_g, align 8
  %79 = load i64, ptr @H5E_CANTRELEASE_g, align 8
  %80 = call i32 (ptr, ptr, i32, i64, i64, ptr, ...) @H5E_printf_stack(ptr noundef @.str.3, ptr noundef @__func__.H5A__close, i32 noundef 1294, i64 noundef %78, i64 noundef %79, ptr noundef @.str.56)
  br label %81

81:                                               ; preds = %77
  store i8 1, ptr %4, align 1
  %82 = load i8, ptr %4, align 1
  %83 = trunc i8 %82 to i1
  %84 = zext i1 %83 to i8
  store i8 %84, ptr %4, align 1
  br label %85

85:                                               ; preds = %81
  br label %86

86:                                               ; preds = %85
  store i32 -1, ptr %3, align 4
  br label %94

87:                                               ; No predecessors!
  br label %88

88:                                               ; preds = %87
  br label %89

89:                                               ; preds = %88, %69
  %90 = load ptr, ptr %2, align 8
  %91 = getelementptr inbounds %struct.H5A_t, ptr %90, i32 0, i32 4
  store ptr null, ptr %91, align 8
  %92 = load ptr, ptr %2, align 8
  %93 = call ptr @H5FL_reg_free(ptr noundef @H5_H5A_t_reg_free_list, ptr noundef %92)
  store ptr %93, ptr %2, align 8
  br label %94

94:                                               ; preds = %89, %86, %57, %26
  %95 = load i32, ptr %3, align 4
  ret i32 %95
}