; Function Attrs: nounwind uwtable
define range(i32 -1, 1) i32 @H5A__close(ptr noundef %0) local_unnamed_addr #0 {
  %2 = getelementptr inbounds i8, ptr %0, i64 64
  %3 = load i8, ptr %2, align 8
  %4 = trunc i8 %3 to i1
  br i1 %4, label %5, label %13

5:                                                ; preds = %1
  %6 = getelementptr inbounds i8, ptr %0, i64 40
  %7 = tail call i32 @H5O_close(ptr noundef nonnull %6, ptr noundef null) #13
  %8 = icmp slt i32 %7, 0
  br i1 %8, label %9, label %13

9:                                                ; preds = %5
  %10 = load i64, ptr @H5E_ATTR_g, align 8
  %11 = load i64, ptr @H5E_CANTRELEASE_g, align 8
  %12 = tail call i32 (ptr, ptr, i32, i64, i64, ptr, ...) @H5E_printf_stack(ptr noundef nonnull @.str.3, ptr noundef nonnull @__func__.H5A__close, i32 noundef 1277, i64 noundef %10, i64 noundef %11, ptr noundef nonnull @.str.54) #13
  br label %38

13:                                               ; preds = %5, %1
  %14 = getelementptr inbounds i8, ptr %0, i64 96
  %15 = load ptr, ptr %14, align 8
  %16 = getelementptr inbounds i8, ptr %15, i64 76
  %17 = load i32, ptr %16, align 4
  %18 = icmp ult i32 %17, 2
  br i1 %18, label %19, label %26

19:                                               ; preds = %13
  %20 = tail call i32 @H5A__shared_free(ptr noundef nonnull %0)
  %21 = icmp slt i32 %20, 0
  br i1 %21, label %22, label %28

22:                                               ; preds = %19
  %23 = load i64, ptr @H5E_ATTR_g, align 8
  %24 = load i64, ptr @H5E_CANTRELEASE_g, align 8
  %25 = tail call i32 (ptr, ptr, i32, i64, i64, ptr, ...) @H5E_printf_stack(ptr noundef nonnull @.str.3, ptr noundef nonnull @__func__.H5A__close, i32 noundef 1284, i64 noundef %23, i64 noundef %24, ptr noundef nonnull @.str.55) #13
  br label %38

26:                                               ; preds = %13
  %27 = add i32 %17, -1
  store i32 %27, ptr %16, align 4
  br label %28

28:                                               ; preds = %19, %26
  %29 = getelementptr inbounds i8, ptr %0, i64 72
  %30 = tail call i32 @H5G_name_free(ptr noundef nonnull %29) #13
  %31 = icmp slt i32 %30, 0
  br i1 %31, label %32, label %36

32:                                               ; preds = %28
  %33 = load i64, ptr @H5E_ATTR_g, align 8
  %34 = load i64, ptr @H5E_CANTRELEASE_g, align 8
  %35 = tail call i32 (ptr, ptr, i32, i64, i64, ptr, ...) @H5E_printf_stack(ptr noundef nonnull @.str.3, ptr noundef nonnull @__func__.H5A__close, i32 noundef 1294, i64 noundef %33, i64 noundef %34, ptr noundef nonnull @.str.56) #13
  br label %38

36:                                               ; preds = %28
  store ptr null, ptr %14, align 8
  %37 = tail call ptr @H5FL_reg_free(ptr noundef nonnull @H5_H5A_t_reg_free_list, ptr noundef nonnull %0) #13
  br label %38

38:                                               ; preds = %36, %32, %22, %9
  %.0 = phi i32 [ -1, %9 ], [ -1, %22 ], [ -1, %32 ], [ 0, %36 ]
  ret i32 %.0
}